target datalayout = "e-m:e-p270:32:32-p271:32:32-p272:64:64-i64:64-i128:128-f80:128-n8:16:32:64-S128"
target triple = "x86_64-pc-linux-gnu"

%struct.expert_field = type { i32, i32 }
%struct._proto_node = type { ptr, ptr, ptr, ptr, ptr, ptr, ptr }
%struct.field_info = type { ptr, i32, i32, i32, i32, i32, i32, ptr, ptr, ptr, i32, i32 }

@hf_sccp_param_length = internal global i32 0, align 4
@ei_sccp_externally_reassembled = internal global %struct.expert_field zeroinitializer, align 4
@sccp_show_length = internal global i8 0, align 1
@dt1_ignore_length = internal global i8 0, align 1
@.str.484 = private unnamed_addr constant [12 x i8] c"Unknown: %d\00", align 1
@.str.504 = private unnamed_addr constant [14 x i8] c"%s length: %d\00", align 1
@.str.505 = private unnamed_addr constant [83 x i8] c"Possibly externally reassembled (remaining length %u > %u), check SCCP preferences\00", align 1

; Function Attrs: inlinehint nounwind null_pointer_is_valid sspstrong uwtable
define internal void @proto_item_set_hidden(ptr noundef %0) #9 {
  %2 = alloca ptr, align 8
  store ptr %0, ptr %2, align 8
  %3 = load ptr, ptr %2, align 8
  %4 = icmp ne ptr %3, null
  br i1 %4, label %5, label %24

5:                                                ; preds = %1
  br label %6

6:                                                ; preds = %5
  %7 = load ptr, ptr %2, align 8
  %8 = getelementptr inbounds nuw %struct._proto_node, ptr %7, i32 0, i32 5
  %9 = load ptr, ptr %8, align 8
  %10 = icmp ne ptr %9, null
  br i1 %10, label %11, label %22

11:                                               ; preds = %6
  %12 = load ptr, ptr %2, align 8
  %13 = getelementptr inbounds nuw %struct._proto_node, ptr %12, i32 0, i32 5
  %14 = load ptr, ptr %13, align 8
  %15 = getelementptr inbounds nuw %struct.field_info, ptr %14, i32 0, i32 6
  %16 = load i32, ptr %15, align 4
  %17 = or i32 %16, 1
  %18 = load ptr, ptr %2, align 8
  %19 = getelementptr inbounds nuw %struct._proto_node, ptr %18, i32 0, i32 5
  %20 = load ptr, ptr %19, align 8
  %21 = getelementptr inbounds nuw %struct.field_info, ptr %20, i32 0, i32 6
  store i32 %17, ptr %21, align 4
  br label %22

22:                                               ; preds = %11, %6
  br label %23

23:                                               ; preds = %22
  br label %24

24:                                               ; preds = %23, %1
  ret void
}

; Function Attrs: null_pointer_is_valid sspstrong uwtable
define internal zeroext i16 @dissect_sccp_variable_parameter(ptr noundef %0, ptr noundef %1, ptr noundef %2, ptr noundef %3, i8 noundef zeroext %4, i32 noundef %5, ptr noundef %6) #0 {
  %8 = alloca ptr, align 8
  %9 = alloca ptr, align 8
  %10 = alloca ptr, align 8
  %11 = alloca ptr, align 8
  %12 = alloca i8, align 1
  %13 = alloca i32, align 4
  %14 = alloca ptr, align 8
  %15 = alloca i32, align 4
  %16 = alloca i16, align 2
  %17 = alloca i8, align 1
  %18 = alloca ptr, align 8
  store ptr %0, ptr %8, align 8
  store ptr %1, ptr %9, align 8
  store ptr %2, ptr %10, align 8
  store ptr %3, ptr %11, align 8
  store i8 %4, ptr %12, align 1
  store i32 %5, ptr %13, align 4
  store ptr %6, ptr %14, align 8
  call void @llvm.lifetime.start.p0(i64 4, ptr %15) #10
  call void @llvm.lifetime.start.p0(i64 2, ptr %16) #10
  call void @llvm.lifetime.start.p0(i64 1, ptr %17) #10
  call void @llvm.lifetime.start.p0(i64 8, ptr %18) #10
  %19 = load i8, ptr %12, align 1
  %20 = zext i8 %19 to i32
  %21 = icmp ne i32 %20, 19
  br i1 %21, label %22, label %27

22:                                               ; preds = %7
  %23 = load ptr, ptr %8, align 8
  %24 = load i32, ptr %13, align 4
  %25 = call zeroext i8 @tvb_get_uint8(ptr noundef %23, i32 noundef %24)
  %26 = zext i8 %25 to i16
  store i16 %26, ptr %16, align 2
  store i8 1, ptr %17, align 1
  br label %31

27:                                               ; preds = %7
  %28 = load ptr, ptr %8, align 8
  %29 = load i32, ptr %13, align 4
  %30 = call zeroext i16 @tvb_get_letohs(ptr noundef %28, i32 noundef %29)
  store i16 %30, ptr %16, align 2
  store i8 2, ptr %17, align 1
  br label %31

31:                                               ; preds = %27, %22
  %32 = load ptr, ptr %10, align 8
  %33 = load i32, ptr @hf_sccp_param_length, align 4
  %34 = load ptr, ptr %8, align 8
  %35 = load i32, ptr %13, align 4
  %36 = load i8, ptr %17, align 1
  %37 = zext i8 %36 to i32
  %38 = load i16, ptr %16, align 2
  %39 = zext i16 %38 to i32
  %40 = load i8, ptr %12, align 1
  %41 = zext i8 %40 to i32
  %42 = call ptr @val_to_str(i32 noundef %41, ptr noundef @sccp_parameter_values, ptr noundef @.str.484)
  %43 = load i16, ptr %16, align 2
  %44 = zext i16 %43 to i32
  %45 = call ptr (ptr, i32, ptr, i32, i32, i32, ptr, ...) @proto_tree_add_uint_format(ptr noundef %32, i32 noundef %33, ptr noundef %34, i32 noundef %35, i32 noundef %37, i32 noundef %39, ptr noundef @.str.504, ptr noundef %42, i32 noundef %44)
  store ptr %45, ptr %18, align 8
  %46 = load ptr, ptr %8, align 8
  %47 = load i32, ptr %13, align 4
  %48 = load i8, ptr %17, align 1
  %49 = zext i8 %48 to i32
  %50 = add i32 %47, %49
  %51 = call i32 @tvb_reported_length_remaining(ptr noundef %46, i32 noundef %50)
  store i32 %51, ptr %15, align 4
  %52 = load i8, ptr %12, align 1
  %53 = zext i8 %52 to i32
  %54 = icmp eq i32 %53, 15
  br i1 %54, label %55, label %75

55:                                               ; preds = %31
  %56 = load i32, ptr %15, align 4
  %57 = icmp sgt i32 %56, 255
  br i1 %57, label %58, label %75

58:                                               ; preds = %55
  %59 = load i16, ptr %16, align 2
  %60 = zext i16 %59 to i32
  %61 = icmp eq i32 %60, 255
  br i1 %61, label %62, label %75

62:                                               ; preds = %58
  %63 = load ptr, ptr %9, align 8
  %64 = load ptr, ptr %18, align 8
  %65 = load i32, ptr %15, align 4
  %66 = load i16, ptr %16, align 2
  %67 = zext i16 %66 to i32
  %68 = call ptr (ptr, ptr, ptr, ptr, ...) @expert_add_info_format(ptr noundef %63, ptr noundef %64, ptr noundef @ei_sccp_externally_reassembled, ptr noundef @.str.505, i32 noundef %65, i32 noundef %67)
  %69 = load i8, ptr @dt1_ignore_length, align 1, !range !6, !noundef !7
  %70 = trunc i8 %69 to i1
  br i1 %70, label %71, label %74

71:                                               ; preds = %62
  %72 = load i32, ptr %15, align 4
  %73 = trunc i32 %72 to i16
  store i16 %73, ptr %16, align 2
  br label %74

74:                                               ; preds = %71, %62
  br label %81

75:                                               ; preds = %58, %55, %31
  %76 = load i8, ptr @sccp_show_length, align 1, !range !6, !noundef !7
  %77 = trunc i8 %76 to i1
  br i1 %77, label %80, label %78

78:                                               ; preds = %75
  %79 = load ptr, ptr %18, align 8
  call void @proto_item_set_hidden(ptr noundef %79)
  br label %80

80:                                               ; preds = %78, %75
  br label %81

81:                                               ; preds = %80, %74
  %82 = load i8, ptr %17, align 1
  %83 = zext i8 %82 to i32
  %84 = load i32, ptr %13, align 4
  %85 = add i32 %84, %83
  store i32 %85, ptr %13, align 4
  %86 = load ptr, ptr %8, align 8
  %87 = load ptr, ptr %9, align 8
  %88 = load ptr, ptr %10, align 8
  %89 = load ptr, ptr %11, align 8
  %90 = load i8, ptr %12, align 1
  %91 = load i32, ptr %13, align 4
  %92 = load i16, ptr %16, align 2
  %93 = load ptr, ptr %14, align 8
  %94 = call zeroext i16 @dissect_sccp_parameter(ptr noundef %86, ptr noundef %87, ptr noundef %88, ptr noundef %89, i8 noundef zeroext %90, i32 noundef %91, i16 noundef zeroext %92, ptr noundef %93)
  %95 = load i16, ptr %16, align 2
  %96 = zext i16 %95 to i32
  %97 = load i8, ptr %17, align 1
  %98 = zext i8 %97 to i32
  %99 = add i32 %96, %98
  %100 = trunc i32 %99 to i16
  call void @llvm.lifetime.end.p0(i64 8, ptr %18) #10
  call void @llvm.lifetime.end.p0(i64 1, ptr %17) #10
  call void @llvm.lifetime.end.p0(i64 2, ptr %16) #10
  call void @llvm.lifetime.end.p0(i64 4, ptr %15) #10
  ret i16 %100
}