; Function Attrs: null_pointer_is_valid sspstrong uwtable
define internal fastcc zeroext i16 @dissect_sccp_variable_parameter(ptr noundef %0, ptr noundef %1, ptr noundef %2, ptr noundef %3, i8 noundef zeroext %4, i32 noundef %5, ptr noundef captures(none) %6) unnamed_addr #0 {
  %8 = zext i8 %4 to i32
  %.not = icmp eq i8 %4, 19
  br i1 %.not, label %12, label %9

9:                                                ; preds = %7
  %10 = tail call zeroext i8 @tvb_get_uint8(ptr noundef %0, i32 noundef %5)
  %11 = zext i8 %10 to i16
  br label %14

12:                                               ; preds = %7
  %13 = tail call zeroext i16 @tvb_get_letohs(ptr noundef %0, i32 noundef %5)
  br label %14

14:                                               ; preds = %12, %9
  %.039 = phi i16 [ %11, %9 ], [ %13, %12 ]
  %.0 = phi i32 [ 1, %9 ], [ 2, %12 ]
  %15 = load i32, ptr @hf_sccp_param_length, align 4
  %16 = zext i16 %.039 to i32
  %17 = tail call ptr @val_to_str(i32 noundef %8, ptr noundef nonnull @sccp_parameter_values, ptr noundef nonnull @.str.484)
  %18 = tail call ptr (ptr, i32, ptr, i32, i32, i32, ptr, ...) @proto_tree_add_uint_format(ptr noundef %2, i32 noundef %15, ptr noundef %0, i32 noundef %5, i32 noundef %.0, i32 noundef %16, ptr noundef nonnull @.str.504, ptr noundef %17, i32 noundef %16)
  %19 = add i32 %.0, %5
  %20 = tail call i32 @tvb_reported_length_remaining(ptr noundef %0, i32 noundef %19)
  %21 = icmp eq i8 %4, 15
  %22 = icmp sgt i32 %20, 255
  %or.cond = select i1 %21, i1 %22, i1 false
  %23 = icmp eq i16 %.039, 255
  %or.cond4 = select i1 %or.cond, i1 %23, i1 false
  br i1 %or.cond4, label %24, label %29

24:                                               ; preds = %14
  %25 = tail call ptr (ptr, ptr, ptr, ptr, ...) @expert_add_info_format(ptr noundef %1, ptr noundef %18, ptr noundef nonnull @ei_sccp_externally_reassembled, ptr noundef nonnull @.str.505, i32 noundef %20, i32 noundef 255)
  %26 = load i8, ptr @dt1_ignore_length, align 1, !range !6, !noundef !7
  %27 = trunc nuw i8 %26 to i1
  %28 = trunc i32 %20 to i16
  %spec.select = select i1 %27, i16 %28, i16 255
  br label %proto_item_set_hidden.exit

29:                                               ; preds = %14
  %30 = load i8, ptr @sccp_show_length, align 1, !range !6, !noundef !7
  %31 = trunc nuw i8 %30 to i1
  %.not.i = icmp eq ptr %18, null
  %or.cond42 = select i1 %31, i1 true, i1 %.not.i
  br i1 %or.cond42, label %proto_item_set_hidden.exit, label %32

32:                                               ; preds = %29
  %33 = getelementptr inbounds nuw i8, ptr %18, i64 40
  %34 = load ptr, ptr %33, align 8
  %.not5.i = icmp eq ptr %34, null
  br i1 %.not5.i, label %proto_item_set_hidden.exit, label %35

35:                                               ; preds = %32
  %36 = getelementptr inbounds nuw i8, ptr %34, i64 28
  %37 = load i32, ptr %36, align 4
  %38 = or i32 %37, 1
  store i32 %38, ptr %36, align 4
  br label %proto_item_set_hidden.exit

proto_item_set_hidden.exit:                       ; preds = %35, %32, %24, %29
  %.1 = phi i16 [ %.039, %29 ], [ %spec.select, %24 ], [ %.039, %32 ], [ %.039, %35 ]
  %39 = tail call fastcc zeroext i16 @dissect_sccp_parameter(ptr noundef %0, ptr noundef %1, ptr noundef %2, ptr noundef %3, i8 noundef zeroext %4, i32 noundef %19, i16 noundef zeroext %.1, ptr noundef %6)
  %40 = trunc nuw nsw i32 %.0 to i16
  %41 = add i16 %.1, %40
  ret i16 %41
}